; Function Attrs: nounwind uwtable
define hidden void @_glfwUpdateBufferScaleFromOutputsWayland(ptr noundef %0) local_unnamed_addr #0 {
  %2 = load ptr, ptr getelementptr inbounds nuw (i8, ptr @_glfw, i64 133904), align 8, !tbaa !3
  %3 = load ptr, ptr getelementptr inbounds nuw (i8, ptr @_glfw, i64 137520), align 8, !tbaa !93
  %4 = tail call i32 %3(ptr noundef %2) #20
  %5 = icmp ult i32 %4, 3
  br i1 %5, label %36, label %6

6:                                                ; preds = %1
  %7 = getelementptr inbounds nuw i8, ptr %0, i64 896
  %8 = load i32, ptr %7, align 8, !tbaa !94
  %.not = icmp eq i32 %8, 0
  br i1 %.not, label %36, label %9

9:                                                ; preds = %6
  %10 = getelementptr inbounds nuw i8, ptr %0, i64 1072
  %11 = load ptr, ptr %10, align 8, !tbaa !128
  %.not20 = icmp eq ptr %11, null
  br i1 %.not20, label %.preheader, label %36

.preheader:                                       ; preds = %9
  %12 = getelementptr inbounds nuw i8, ptr %0, i64 1040
  %13 = load i64, ptr %12, align 8, !tbaa !129
  %.not25 = icmp eq i64 %13, 0
  br i1 %.not25, label %._crit_edge, label %.lr.ph

.lr.ph:                                           ; preds = %.preheader
  %14 = getelementptr inbounds nuw i8, ptr %0, i64 1032
  br label %17

._crit_edge:                                      ; preds = %17, %.preheader
  %.019.lcssa = phi i32 [ 1, %.preheader ], [ %21, %17 ]
  %15 = getelementptr inbounds nuw i8, ptr %0, i64 1024
  %16 = load i32, ptr %15, align 8, !tbaa !130
  %.not21 = icmp eq i32 %16, %.019.lcssa
  br i1 %.not21, label %36, label %25

17:                                               ; preds = %.lr.ph, %17
  %.024 = phi i64 [ 0, %.lr.ph ], [ %22, %17 ]
  %.01923 = phi i32 [ 1, %.lr.ph ], [ %21, %17 ]
  %18 = load ptr, ptr %14, align 8, !tbaa !131
  %19 = getelementptr inbounds nuw %struct._GLFWscaleWayland, ptr %18, i64 %.024, i32 1
  %20 = load i32, ptr %19, align 8, !tbaa !132
  %21 = tail call i32 @_glfw_max(i32 noundef %20, i32 noundef %.01923) #20
  %22 = add nuw i64 %.024, 1
  %23 = load i64, ptr %12, align 8, !tbaa !129
  %24 = icmp ult i64 %22, %23
  br i1 %24, label %17, label %._crit_edge

25:                                               ; preds = %._crit_edge
  store i32 %.019.lcssa, ptr %15, align 8, !tbaa !130
  %26 = getelementptr inbounds nuw i8, ptr %0, i64 904
  %27 = load ptr, ptr %26, align 8, !tbaa !135
  %28 = load ptr, ptr getelementptr inbounds nuw (i8, ptr @_glfw, i64 137528), align 8, !tbaa !136
  %29 = load ptr, ptr getelementptr inbounds nuw (i8, ptr @_glfw, i64 137520), align 8, !tbaa !93
  %30 = tail call i32 %29(ptr noundef %27) #20
  %31 = tail call ptr (ptr, i32, ptr, i32, i32, ...) %28(ptr noundef %27, i32 noundef 8, ptr noundef null, i32 noundef %30, i32 noundef 0, i32 noundef %.019.lcssa) #20
  %32 = sitofp i32 %.019.lcssa to float
  tail call void @_glfwInputWindowContentScale(ptr noundef nonnull %0, float noundef %32, float noundef %32) #20
  tail call fastcc void @resizeFramebuffer(ptr noundef nonnull %0)
  %33 = getelementptr inbounds nuw i8, ptr %0, i64 872
  %34 = load i32, ptr %33, align 8, !tbaa !137
  %.not22 = icmp eq i32 %34, 0
  br i1 %.not22, label %36, label %35

35:                                               ; preds = %25
  tail call void @_glfwInputWindowDamage(ptr noundef nonnull %0) #20
  br label %36

36:                                               ; preds = %._crit_edge, %35, %25, %9, %6, %1
  ret void
}